; Function Attrs: mustprogress nofree norecurse nosync nounwind willreturn memory(read, inaccessiblemem: none) uwtable
define i32 @Abc_NodeFanin1Copy2(ptr noundef readonly captures(none) %0) local_unnamed_addr #0 {
  %.val = load ptr, ptr %0, align 8, !tbaa !44
  %2 = getelementptr i8, ptr %0, i64 32
  %.val2 = load ptr, ptr %2, align 8, !tbaa !45
  %3 = getelementptr i8, ptr %.val, i64 32
  %.val.val = load ptr, ptr %3, align 8, !tbaa !13
  %4 = getelementptr i8, ptr %.val2, i64 4
  %.val2.val = load i32, ptr %4, align 4, !tbaa !10
  %5 = getelementptr i8, ptr %.val.val, i64 8
  %.val.val.val = load ptr, ptr %5, align 8, !tbaa !28
  %6 = sext i32 %.val2.val to i64
  %7 = getelementptr inbounds ptr, ptr %.val.val.val, i64 %6
  %8 = load ptr, ptr %7, align 8, !tbaa !30
  %9 = getelementptr inbounds nuw i8, ptr %8, i64 64
  %10 = load i32, ptr %9, align 8, !tbaa !46
  %11 = getelementptr i8, ptr %0, i64 20
  %.val3 = load i32, ptr %11, align 4
  %12 = lshr i32 %.val3, 11
  %13 = and i32 %12, 1
  %14 = xor i32 %13, %10
  ret i32 %14
}